; Function Attrs: mustprogress uwtable
define internal noundef ptr @"_ZNSt17_Function_handlerIFPN7rocksdb23CompactionFilterFactoryERKNSt7__cxx1112basic_stringIcSt11char_traitsIcESaIcEEEPSt10unique_ptrIS1_St14default_deleteIS1_EEPS8_EZ24RegisterCassandraObjectsE3$_2E9_M_invokeERKSt9_Any_dataSA_OSF_OSG_"(ptr nocapture nonnull readnone align 8 %__functor, ptr nocapture nonnull readnone align 8 %__args, ptr nocapture noundef nonnull readonly align 8 dereferenceable(8) %__args1, ptr nocapture nonnull readnone align 8 %__args3) #3 align 2 personality ptr @__gxx_personality_v0 {
entry:
  %__args1.val = load ptr, ptr %__args1, align 8
  %call.i.i.i = tail call noalias noundef nonnull dereferenceable(48) ptr @_Znwm(i64 noundef 48) #21
  invoke void @_ZN7rocksdb9cassandra32CassandraCompactionFilterFactoryC1Ebi(ptr noundef nonnull align 8 dereferenceable(48) %call.i.i.i, i1 noundef zeroext false, i32 noundef 0)
          to label %invoke.cont.i.i.i unwind label %lpad.i.i.i

invoke.cont.i.i.i:                                ; preds = %entry
  %0 = load ptr, ptr %__args1.val, align 8
  store ptr %call.i.i.i, ptr %__args1.val, align 8
  %tobool.not.i.i.i.i.i = icmp eq ptr %0, null
  br i1 %tobool.not.i.i.i.i.i, label %"_ZSt10__invoke_rIPN7rocksdb23CompactionFilterFactoryERZ24RegisterCassandraObjectsE3$_2JRKNSt7__cxx1112basic_stringIcSt11char_traitsIcESaIcEEEPSt10unique_ptrIS1_St14default_deleteIS1_EEPSA_EENSt9enable_ifIX16is_invocable_r_vIT_T0_DpT1_EESK_E4typeEOSL_DpOSM_.exit", label %_ZNKSt14default_deleteIN7rocksdb23CompactionFilterFactoryEEclEPS1_.exit.i.i.i.i.i

_ZNKSt14default_deleteIN7rocksdb23CompactionFilterFactoryEEclEPS1_.exit.i.i.i.i.i: ; preds = %invoke.cont.i.i.i
  %vtable.i.i.i.i.i.i = load ptr, ptr %0, align 8
  %vfn.i.i.i.i.i.i = getelementptr inbounds i8, ptr %vtable.i.i.i.i.i.i, i64 8
  %1 = load ptr, ptr %vfn.i.i.i.i.i.i, align 8
  tail call void %1(ptr noundef nonnull align 8 dereferenceable(32) %0) #19
  %.pre.i.i.i = load ptr, ptr %__args1.val, align 8
  br label %"_ZSt10__invoke_rIPN7rocksdb23CompactionFilterFactoryERZ24RegisterCassandraObjectsE3$_2JRKNSt7__cxx1112basic_stringIcSt11char_traitsIcESaIcEEEPSt10unique_ptrIS1_St14default_deleteIS1_EEPSA_EENSt9enable_ifIX16is_invocable_r_vIT_T0_DpT1_EESK_E4typeEOSL_DpOSM_.exit"

lpad.i.i.i:                                       ; preds = %entry
  %2 = landingpad { ptr, i32 }
          cleanup
  tail call void @_ZdlPv(ptr noundef nonnull %call.i.i.i) #20
  resume { ptr, i32 } %2

"_ZSt10__invoke_rIPN7rocksdb23CompactionFilterFactoryERZ24RegisterCassandraObjectsE3$_2JRKNSt7__cxx1112basic_stringIcSt11char_traitsIcESaIcEEEPSt10unique_ptrIS1_St14default_deleteIS1_EEPSA_EENSt9enable_ifIX16is_invocable_r_vIT_T0_DpT1_EESK_E4typeEOSL_DpOSM_.exit": ; preds = %invoke.cont.i.i.i, %_ZNKSt14default_deleteIN7rocksdb23CompactionFilterFactoryEEclEPS1_.exit.i.i.i.i.i
  %3 = phi ptr [ %call.i.i.i, %invoke.cont.i.i.i ], [ %.pre.i.i.i, %_ZNKSt14default_deleteIN7rocksdb23CompactionFilterFactoryEEclEPS1_.exit.i.i.i.i.i ]
  ret ptr %3
}